Certificate:
    Data:
        Version: 3 (0x2)
        Serial Number:
            83:b5:de:67:20:98:d6:d8
        Signature Algorithm: sha1WithRSAEncryption
        Issuer: C=US, ST=Missouri, O=Siri Proxy, CN=SiriProxyCA
        Validity
            Not Before: Jan  3 23:22:43 2012 GMT
            Not After : Jan  2 23:22:43 2015 GMT
        Subject: C=US, ST=Missouri, O=Siri Proxy, CN=SiriProxyCA
        Subject Public Key Info:
            Public Key Algorithm: rsaEncryption
                Public-Key: (1024 bit)
                Modulus:
                    00:fe:6c:45:b8:26:03:be:07:83:dc:e7:78:97:93:
                    44:e7:f2:22:07:0d:df:e2:58:5d:00:8d:12:1c:51:
                    be:2c:ef:eb:42:06:4c:dd:60:db:0b:2e:4c:d1:86:
                    e9:ff:eb:be:65:c3:bc:3d:45:bb:cc:96:f8:1d:dc:
                    f0:d5:17:4a:cd:37:b7:5f:1d:d4:08:4b:b4:d6:5a:
                    6b:54:03:4a:f5:66:27:01:07:94:af:3c:7a:4b:d4:
                    1a:f2:c2:b5:2d:19:6e:c3:96:b6:28:d1:28:ae:19:
                    8b:8e:de:1b:84:59:56:b9:17:cc:19:92:13:66:60:
                    08:ea:18:79:24:fc:5f:67:61
                Exponent: 65537 (0x10001)
        X509v3 extensions:
            X509v3 Subject Key Identifier: 
                95:F9:C6:17:7E:AE:8C:96:9E:72:9A:93:6F:5E:28:06:BC:E5:55:16
            X509v3 Authority Key Identifier: 
                keyid:95:F9:C6:17:7E:AE:8C:96:9E:72:9A:93:6F:5E:28:06:BC:E5:55:16

            X509v3 Basic Constraints: 
                CA:TRUE
    Signature Algorithm: sha1WithRSAEncryption
        4f:b7:b0:c5:89:a1:24:86:60:55:2b:e2:6f:da:3b:9c:f3:4f:
        ff:8b:ef:36:d3:83:8b:82:60:4c:c4:01:57:36:d8:d2:e7:60:
        c6:84:3a:7e:a7:73:2a:82:32:d6:fa:25:d9:a9:ff:94:04:34:
        8d:2f:3d:3a:32:d0:df:50:c5:f9:82:52:21:37:b3:dd:f4:f1:
        c9:db:b4:da:1b:ea:4e:56:9d:f2:32:50:e9:7f:0e:d8:a7:9e:
        32:f9:c5:ce:1e:77:8c:84:78:88:df:8c:df:35:d3:0e:f3:7d:
        88:f3:29:13:c9:1e:c2:68:dc:20:40:59:00:29:5a:5b:8f:c7:
        da:d0
-----BEGIN CERTIFICATE-----
MIICZDCCAc2gAwIBAgIJAIO13mcgmNbYMA0GCSqGSIb3DQEBBQUAMEsxCzAJBgNV
BAYTAlVTMREwDwYDVQQIDAhNaXNzb3VyaTETMBEGA1UECgwKU2lyaSBQcm94eTEU
MBIGA1UEAwwLU2lyaVByb3h5Q0EwHhcNMTIwMTAzMjMyMjQzWhcNMTUwMTAyMjMy
MjQzWjBLMQswCQYDVQQGEwJVUzERMA8GA1UECAwITWlzc291cmkxEzARBgNVBAoM
ClNpcmkgUHJveHkxFDASBgNVBAMMC1NpcmlQcm94eUNBMIGfMA0GCSqGSIb3DQEB
AQUAA4GNADCBiQKBgQD+bEW4JgO+B4Pc53iXk0Tn8iIHDd/iWF0AjRIcUb4s7+tC
BkzdYNsLLkzRhun/675lw7w9RbvMlvgd3PDVF0rNN7dfHdQIS7TWWmtUA0r1ZicB
B5SvPHpL1BrywrUtGW7DlrYo0SiuGYuO3huEWVa5F8wZkhNmYAjqGHkk/F9nYQID
AQABo1AwTjAdBgNVHQ4EFgQUlfnGF36ujJaecpqTb14oBrzlVRYwHwYDVR0jBBgw
FoAUlfnGF36ujJaecpqTb14oBrzlVRYwDAYDVR0TBAUwAwEB/zANBgkqhkiG9w0B
AQUFAAOBgQBPt7DFiaEkhmBVK+Jv2juc80//i+8204OLgmBMxAFXNtjS52DGhDp+
p3MqgjLW+iXZqf+UBDSNLz06MtDfUMX5glIhN7Pd9PHJ27TaG+pOVp3yMlDpfw7Y
p54y+cXOHneMhHiI34zfNdMO832I8ykTyR7CaNwgQFkAKVpbj8fa0A==
-----END CERTIFICATE-----
